target datalayout = "e-m:e-p270:32:32-p271:32:32-p272:64:64-i64:64-i128:128-f80:128-n8:16:32:64-S128"
target triple = "x86_64-pc-linux-gnu"

%"class.std::__cxx11::basic_string" = type { %"struct.std::__cxx11::basic_string<char>::_Alloc_hider", i64, %union.anon }
%"struct.std::__cxx11::basic_string<char>::_Alloc_hider" = type { ptr }
%union.anon = type { i64, [8 x i8] }
%"struct.jsonnet::internal::LocationRange" = type { %"class.std::__cxx11::basic_string", %"struct.jsonnet::internal::Location", %"struct.jsonnet::internal::Location" }
%"struct.jsonnet::internal::Location" = type { i64, i64 }

@.str.18 = private unnamed_addr constant [2 x i8] c"-\00", align 1
@.str.44 = private unnamed_addr constant [2 x i8] c":\00", align 1
@.str.46 = private unnamed_addr constant [2 x i8] c"(\00", align 1
@.str.47 = private unnamed_addr constant [4 x i8] c")-(\00", align 1
@.str.48 = private unnamed_addr constant [2 x i8] c")\00", align 1

; Function Attrs: mustprogress nounwind uwtable
define linkonce_odr noundef zeroext i1 @_ZNK7jsonnet8internal8Location5isSetEv(ptr noundef nonnull align 8 dereferenceable(16) %0) #5 comdat align 2 {
  %2 = alloca ptr, align 8
  store ptr %0, ptr %2, align 8
  %3 = load ptr, ptr %2, align 8
  %4 = getelementptr inbounds %"struct.jsonnet::internal::Location", ptr %3, i32 0, i32 0
  %5 = load i64, ptr %4, align 8
  %6 = icmp ne i64 %5, 0
  ret i1 %6
}

; Function Attrs: mustprogress uwtable
define internal noundef nonnull align 8 dereferenceable(8) ptr @_ZN7jsonnet8internallsERSoRKNS0_8LocationE(ptr noundef nonnull align 8 dereferenceable(8) %0, ptr noundef nonnull align 8 dereferenceable(16) %1) #4 {
  %3 = alloca ptr, align 8
  %4 = alloca ptr, align 8
  store ptr %0, ptr %3, align 8
  store ptr %1, ptr %4, align 8
  %5 = load ptr, ptr %3, align 8
  %6 = load ptr, ptr %4, align 8
  %7 = getelementptr inbounds %"struct.jsonnet::internal::Location", ptr %6, i32 0, i32 0
  %8 = load i64, ptr %7, align 8
  %9 = call noundef nonnull align 8 dereferenceable(8) ptr @_ZNSolsEm(ptr noundef nonnull align 8 dereferenceable(8) %5, i64 noundef %8)
  %10 = call noundef nonnull align 8 dereferenceable(8) ptr @_ZStlsISt11char_traitsIcEERSt13basic_ostreamIcT_ES5_PKc(ptr noundef nonnull align 8 dereferenceable(8) %9, ptr noundef @.str.44)
  %11 = load ptr, ptr %4, align 8
  %12 = getelementptr inbounds %"struct.jsonnet::internal::Location", ptr %11, i32 0, i32 1
  %13 = load i64, ptr %12, align 8
  %14 = call noundef nonnull align 8 dereferenceable(8) ptr @_ZNSolsEm(ptr noundef nonnull align 8 dereferenceable(8) %10, i64 noundef %13)
  %15 = load ptr, ptr %3, align 8
  ret ptr %15
}

; Function Attrs: mustprogress uwtable
define linkonce_odr noundef zeroext i1 @_ZNK7jsonnet8internal13LocationRange5isSetEv(ptr noundef nonnull align 8 dereferenceable(64) %0) #4 comdat align 2 {
  %2 = alloca ptr, align 8
  store ptr %0, ptr %2, align 8
  %3 = load ptr, ptr %2, align 8
  %4 = getelementptr inbounds %"struct.jsonnet::internal::LocationRange", ptr %3, i32 0, i32 1
  %5 = call noundef zeroext i1 @_ZNK7jsonnet8internal8Location5isSetEv(ptr noundef nonnull align 8 dereferenceable(16) %4)
  ret i1 %5
}

; Function Attrs: mustprogress uwtable
define internal noundef nonnull align 8 dereferenceable(8) ptr @_ZN7jsonnet8internallsERSoRKNS0_13LocationRangeE(ptr noundef nonnull align 8 dereferenceable(8) %0, ptr noundef nonnull align 8 dereferenceable(64) %1) #4 {
  %3 = alloca ptr, align 8
  %4 = alloca ptr, align 8
  store ptr %0, ptr %3, align 8
  store ptr %1, ptr %4, align 8
  %5 = load ptr, ptr %4, align 8
  %6 = getelementptr inbounds %"struct.jsonnet::internal::LocationRange", ptr %5, i32 0, i32 0
  %7 = call noundef i64 @_ZNKSt7__cxx1112basic_stringIcSt11char_traitsIcESaIcEE6lengthEv(ptr noundef nonnull align 8 dereferenceable(32) %6) #3
  %8 = icmp ugt i64 %7, 0
  br i1 %8, label %9, label %14

9:                                                ; preds = %2
  %10 = load ptr, ptr %3, align 8
  %11 = load ptr, ptr %4, align 8
  %12 = getelementptr inbounds %"struct.jsonnet::internal::LocationRange", ptr %11, i32 0, i32 0
  %13 = call noundef nonnull align 8 dereferenceable(8) ptr @_ZStlsIcSt11char_traitsIcESaIcEERSt13basic_ostreamIT_T0_ES7_RKNSt7__cxx1112basic_stringIS4_S5_T1_EE(ptr noundef nonnull align 8 dereferenceable(8) %10, ptr noundef nonnull align 8 dereferenceable(32) %12)
  br label %14

14:                                               ; preds = %9, %2
  %15 = load ptr, ptr %4, align 8
  %16 = call noundef zeroext i1 @_ZNK7jsonnet8internal13LocationRange5isSetEv(ptr noundef nonnull align 8 dereferenceable(64) %15)
  br i1 %16, label %17, label %75

17:                                               ; preds = %14
  %18 = load ptr, ptr %4, align 8
  %19 = getelementptr inbounds %"struct.jsonnet::internal::LocationRange", ptr %18, i32 0, i32 0
  %20 = call noundef i64 @_ZNKSt7__cxx1112basic_stringIcSt11char_traitsIcESaIcEE6lengthEv(ptr noundef nonnull align 8 dereferenceable(32) %19) #3
  %21 = icmp ugt i64 %20, 0
  br i1 %21, label %22, label %25

22:                                               ; preds = %17
  %23 = load ptr, ptr %3, align 8
  %24 = call noundef nonnull align 8 dereferenceable(8) ptr @_ZStlsISt11char_traitsIcEERSt13basic_ostreamIcT_ES5_PKc(ptr noundef nonnull align 8 dereferenceable(8) %23, ptr noundef @.str.44)
  br label %25

25:                                               ; preds = %22, %17
  %26 = load ptr, ptr %4, align 8
  %27 = getelementptr inbounds %"struct.jsonnet::internal::LocationRange", ptr %26, i32 0, i32 1
  %28 = getelementptr inbounds %"struct.jsonnet::internal::Location", ptr %27, i32 0, i32 0
  %29 = load i64, ptr %28, align 8
  %30 = load ptr, ptr %4, align 8
  %31 = getelementptr inbounds %"struct.jsonnet::internal::LocationRange", ptr %30, i32 0, i32 2
  %32 = getelementptr inbounds %"struct.jsonnet::internal::Location", ptr %31, i32 0, i32 0
  %33 = load i64, ptr %32, align 8
  %34 = icmp eq i64 %29, %33
  br i1 %34, label %35, label %63

35:                                               ; preds = %25
  %36 = load ptr, ptr %4, align 8
  %37 = getelementptr inbounds %"struct.jsonnet::internal::LocationRange", ptr %36, i32 0, i32 1
  %38 = getelementptr inbounds %"struct.jsonnet::internal::Location", ptr %37, i32 0, i32 1
  %39 = load i64, ptr %38, align 8
  %40 = load ptr, ptr %4, align 8
  %41 = getelementptr inbounds %"struct.jsonnet::internal::LocationRange", ptr %40, i32 0, i32 2
  %42 = getelementptr inbounds %"struct.jsonnet::internal::Location", ptr %41, i32 0, i32 1
  %43 = load i64, ptr %42, align 8
  %44 = sub i64 %43, 1
  %45 = icmp eq i64 %39, %44
  br i1 %45, label %46, label %51

46:                                               ; preds = %35
  %47 = load ptr, ptr %3, align 8
  %48 = load ptr, ptr %4, align 8
  %49 = getelementptr inbounds %"struct.jsonnet::internal::LocationRange", ptr %48, i32 0, i32 1
  %50 = call noundef nonnull align 8 dereferenceable(8) ptr @_ZN7jsonnet8internallsERSoRKNS0_8LocationE(ptr noundef nonnull align 8 dereferenceable(8) %47, ptr noundef nonnull align 8 dereferenceable(16) %49)
  br label %62

51:                                               ; preds = %35
  %52 = load ptr, ptr %3, align 8
  %53 = load ptr, ptr %4, align 8
  %54 = getelementptr inbounds %"struct.jsonnet::internal::LocationRange", ptr %53, i32 0, i32 1
  %55 = call noundef nonnull align 8 dereferenceable(8) ptr @_ZN7jsonnet8internallsERSoRKNS0_8LocationE(ptr noundef nonnull align 8 dereferenceable(8) %52, ptr noundef nonnull align 8 dereferenceable(16) %54)
  %56 = call noundef nonnull align 8 dereferenceable(8) ptr @_ZStlsISt11char_traitsIcEERSt13basic_ostreamIcT_ES5_PKc(ptr noundef nonnull align 8 dereferenceable(8) %55, ptr noundef @.str.18)
  %57 = load ptr, ptr %4, align 8
  %58 = getelementptr inbounds %"struct.jsonnet::internal::LocationRange", ptr %57, i32 0, i32 2
  %59 = getelementptr inbounds %"struct.jsonnet::internal::Location", ptr %58, i32 0, i32 1
  %60 = load i64, ptr %59, align 8
  %61 = call noundef nonnull align 8 dereferenceable(8) ptr @_ZNSolsEm(ptr noundef nonnull align 8 dereferenceable(8) %56, i64 noundef %60)
  br label %62

62:                                               ; preds = %51, %46
  br label %74

63:                                               ; preds = %25
  %64 = load ptr, ptr %3, align 8
  %65 = call noundef nonnull align 8 dereferenceable(8) ptr @_ZStlsISt11char_traitsIcEERSt13basic_ostreamIcT_ES5_PKc(ptr noundef nonnull align 8 dereferenceable(8) %64, ptr noundef @.str.46)
  %66 = load ptr, ptr %4, align 8
  %67 = getelementptr inbounds %"struct.jsonnet::internal::LocationRange", ptr %66, i32 0, i32 1
  %68 = call noundef nonnull align 8 dereferenceable(8) ptr @_ZN7jsonnet8internallsERSoRKNS0_8LocationE(ptr noundef nonnull align 8 dereferenceable(8) %65, ptr noundef nonnull align 8 dereferenceable(16) %67)
  %69 = call noundef nonnull align 8 dereferenceable(8) ptr @_ZStlsISt11char_traitsIcEERSt13basic_ostreamIcT_ES5_PKc(ptr noundef nonnull align 8 dereferenceable(8) %68, ptr noundef @.str.47)
  %70 = load ptr, ptr %4, align 8
  %71 = getelementptr inbounds %"struct.jsonnet::internal::LocationRange", ptr %70, i32 0, i32 2
  %72 = call noundef nonnull align 8 dereferenceable(8) ptr @_ZN7jsonnet8internallsERSoRKNS0_8LocationE(ptr noundef nonnull align 8 dereferenceable(8) %69, ptr noundef nonnull align 8 dereferenceable(16) %71)
  %73 = call noundef nonnull align 8 dereferenceable(8) ptr @_ZStlsISt11char_traitsIcEERSt13basic_ostreamIcT_ES5_PKc(ptr noundef nonnull align 8 dereferenceable(8) %72, ptr noundef @.str.48)
  br label %74

74:                                               ; preds = %63, %62
  br label %75

75:                                               ; preds = %74, %14
  %76 = load ptr, ptr %3, align 8
  ret ptr %76
}