; Function Attrs: mustprogress uwtable
define internal fastcc noundef nonnull align 8 dereferenceable(8) ptr @_ZN7jsonnet8internallsERSoRKNS0_13LocationRangeE(ptr noundef nonnull returned align 8 dereferenceable(8) %0, ptr noundef nonnull align 8 dereferenceable(64) %1) unnamed_addr #6 {
  %3 = tail call noundef i64 @_ZNKSt7__cxx1112basic_stringIcSt11char_traitsIcESaIcEE6lengthEv(ptr noundef nonnull align 8 dereferenceable(32) %1) #30
  %.not = icmp eq i64 %3, 0
  br i1 %.not, label %6, label %4

4:                                                ; preds = %2
  %5 = tail call noundef nonnull align 8 dereferenceable(8) ptr @_ZStlsIcSt11char_traitsIcESaIcEERSt13basic_ostreamIT_T0_ES7_RKNSt7__cxx1112basic_stringIS4_S5_T1_EE(ptr noundef nonnull align 8 dereferenceable(8) %0, ptr noundef nonnull align 8 dereferenceable(32) %1)
  br label %6

6:                                                ; preds = %4, %2
  %7 = getelementptr inbounds i8, ptr %1, i64 32
  %8 = load i64, ptr %7, align 8
  %.not20 = icmp eq i64 %8, 0
  br i1 %.not20, label %49, label %9

9:                                                ; preds = %6
  %10 = tail call noundef i64 @_ZNKSt7__cxx1112basic_stringIcSt11char_traitsIcESaIcEE6lengthEv(ptr noundef nonnull align 8 dereferenceable(32) %1) #30
  %.not19 = icmp eq i64 %10, 0
  br i1 %.not19, label %13, label %11

11:                                               ; preds = %9
  %12 = tail call noundef nonnull align 8 dereferenceable(8) ptr @_ZStlsISt11char_traitsIcEERSt13basic_ostreamIcT_ES5_PKc(ptr noundef nonnull align 8 dereferenceable(8) %0, ptr noundef nonnull @.str.44)
  br label %13

13:                                               ; preds = %11, %9
  %14 = load i64, ptr %7, align 8
  %15 = getelementptr inbounds i8, ptr %1, i64 48
  %16 = load i64, ptr %15, align 8
  %17 = icmp eq i64 %14, %16
  br i1 %17, label %18, label %33

18:                                               ; preds = %13
  %19 = getelementptr inbounds i8, ptr %1, i64 40
  %20 = load i64, ptr %19, align 8
  %21 = getelementptr inbounds i8, ptr %1, i64 56
  %22 = load i64, ptr %21, align 8
  %23 = add i64 %22, -1
  %24 = icmp eq i64 %20, %23
  %25 = tail call noundef nonnull align 8 dereferenceable(8) ptr @_ZNSolsEm(ptr noundef nonnull align 8 dereferenceable(8) %0, i64 noundef %14)
  %26 = tail call noundef nonnull align 8 dereferenceable(8) ptr @_ZStlsISt11char_traitsIcEERSt13basic_ostreamIcT_ES5_PKc(ptr noundef nonnull align 8 dereferenceable(8) %25, ptr noundef nonnull @.str.44)
  %27 = load i64, ptr %19, align 8
  %28 = tail call noundef nonnull align 8 dereferenceable(8) ptr @_ZNSolsEm(ptr noundef nonnull align 8 dereferenceable(8) %26, i64 noundef %27)
  br i1 %24, label %49, label %29

29:                                               ; preds = %18
  %30 = tail call noundef nonnull align 8 dereferenceable(8) ptr @_ZStlsISt11char_traitsIcEERSt13basic_ostreamIcT_ES5_PKc(ptr noundef nonnull align 8 dereferenceable(8) %0, ptr noundef nonnull @.str.18)
  %31 = load i64, ptr %21, align 8
  %32 = tail call noundef nonnull align 8 dereferenceable(8) ptr @_ZNSolsEm(ptr noundef nonnull align 8 dereferenceable(8) %30, i64 noundef %31)
  br label %49

33:                                               ; preds = %13
  %34 = tail call noundef nonnull align 8 dereferenceable(8) ptr @_ZStlsISt11char_traitsIcEERSt13basic_ostreamIcT_ES5_PKc(ptr noundef nonnull align 8 dereferenceable(8) %0, ptr noundef nonnull @.str.46)
  %35 = load i64, ptr %7, align 8
  %36 = tail call noundef nonnull align 8 dereferenceable(8) ptr @_ZNSolsEm(ptr noundef nonnull align 8 dereferenceable(8) %34, i64 noundef %35)
  %37 = tail call noundef nonnull align 8 dereferenceable(8) ptr @_ZStlsISt11char_traitsIcEERSt13basic_ostreamIcT_ES5_PKc(ptr noundef nonnull align 8 dereferenceable(8) %36, ptr noundef nonnull @.str.44)
  %38 = getelementptr inbounds i8, ptr %1, i64 40
  %39 = load i64, ptr %38, align 8
  %40 = tail call noundef nonnull align 8 dereferenceable(8) ptr @_ZNSolsEm(ptr noundef nonnull align 8 dereferenceable(8) %37, i64 noundef %39)
  %41 = tail call noundef nonnull align 8 dereferenceable(8) ptr @_ZStlsISt11char_traitsIcEERSt13basic_ostreamIcT_ES5_PKc(ptr noundef nonnull align 8 dereferenceable(8) %34, ptr noundef nonnull @.str.47)
  %42 = load i64, ptr %15, align 8
  %43 = tail call noundef nonnull align 8 dereferenceable(8) ptr @_ZNSolsEm(ptr noundef nonnull align 8 dereferenceable(8) %41, i64 noundef %42)
  %44 = tail call noundef nonnull align 8 dereferenceable(8) ptr @_ZStlsISt11char_traitsIcEERSt13basic_ostreamIcT_ES5_PKc(ptr noundef nonnull align 8 dereferenceable(8) %43, ptr noundef nonnull @.str.44)
  %45 = getelementptr inbounds i8, ptr %1, i64 56
  %46 = load i64, ptr %45, align 8
  %47 = tail call noundef nonnull align 8 dereferenceable(8) ptr @_ZNSolsEm(ptr noundef nonnull align 8 dereferenceable(8) %44, i64 noundef %46)
  %48 = tail call noundef nonnull align 8 dereferenceable(8) ptr @_ZStlsISt11char_traitsIcEERSt13basic_ostreamIcT_ES5_PKc(ptr noundef nonnull align 8 dereferenceable(8) %41, ptr noundef nonnull @.str.48)
  br label %49

49:                                               ; preds = %18, %33, %29, %6
  ret ptr %0
}